target datalayout = "e-m:e-p270:32:32-p271:32:32-p272:64:64-i64:64-i128:128-f80:128-n8:16:32:64-S128"
target triple = "x86_64-unknown-linux-gnu"

%"class.absl::debian2::string_view" = type { ptr, i64 }
%"class.re2::RegexpStatus" = type { i32, %"class.absl::debian2::string_view", ptr }
%class.anon.29 = type { i8 }

; Function Attrs: mustprogress nounwind uwtable
define linkonce_odr void @_ZZN4absl7debian211string_view13remove_prefixEmENKUlvE_clEv(ptr noundef nonnull align 1 dereferenceable(1) %this) #0 comdat align 2 {
entry:
  %this.addr = alloca ptr, align 8
  store ptr %this, ptr %this.addr, align 8
  br label %do.body

do.body:                                          ; preds = %entry
  call void @llvm.trap()
  unreachable

do.end:                                           ; No predecessors!
  ret void
}

; Function Attrs: mustprogress nounwind uwtable
define linkonce_odr void @_ZN3re212RegexpStatus13set_error_argEN4absl7debian211string_viewE(ptr noundef nonnull align 8 dereferenceable(32) %this, ptr %error_arg.coerce0, i64 %error_arg.coerce1) #0 comdat align 2 {
entry:
  %error_arg = alloca %"class.absl::debian2::string_view", align 8
  %this.addr = alloca ptr, align 8
  %0 = getelementptr inbounds { ptr, i64 }, ptr %error_arg, i32 0, i32 0
  store ptr %error_arg.coerce0, ptr %0, align 8
  %1 = getelementptr inbounds { ptr, i64 }, ptr %error_arg, i32 0, i32 1
  store i64 %error_arg.coerce1, ptr %1, align 8
  store ptr %this, ptr %this.addr, align 8
  %this1 = load ptr, ptr %this.addr, align 8
  %error_arg_ = getelementptr inbounds %"class.re2::RegexpStatus", ptr %this1, i32 0, i32 1
  call void @llvm.memcpy.p0.p0.i64(ptr align 8 %error_arg_, ptr align 8 %error_arg, i64 16, i1 false)
  ret void
}

; Function Attrs: mustprogress nounwind uwtable
define linkonce_odr void @_ZN4absl7debian211string_viewC2Ev(ptr noundef nonnull align 8 dereferenceable(16) %this) unnamed_addr #0 comdat align 2 {
entry:
  %this.addr = alloca ptr, align 8
  store ptr %this, ptr %this.addr, align 8
  %this1 = load ptr, ptr %this.addr, align 8
  %ptr_ = getelementptr inbounds %"class.absl::debian2::string_view", ptr %this1, i32 0, i32 0
  store ptr null, ptr %ptr_, align 8
  %length_ = getelementptr inbounds %"class.absl::debian2::string_view", ptr %this1, i32 0, i32 1
  store i64 0, ptr %length_, align 8
  ret void
}

; Function Attrs: mustprogress nounwind uwtable
define linkonce_odr void @_ZN3re212RegexpStatus8set_codeENS_16RegexpStatusCodeE(ptr noundef nonnull align 8 dereferenceable(32) %this, i32 noundef %code) #0 comdat align 2 {
entry:
  %this.addr = alloca ptr, align 8
  %code.addr = alloca i32, align 4
  store ptr %this, ptr %this.addr, align 8
  store i32 %code, ptr %code.addr, align 4
  %this1 = load ptr, ptr %this.addr, align 8
  %0 = load i32, ptr %code.addr, align 4
  %code_ = getelementptr inbounds %"class.re2::RegexpStatus", ptr %this1, i32 0, i32 0
  store i32 %0, ptr %code_, align 8
  ret void
}

; Function Attrs: mustprogress uwtable
define linkonce_odr void @_ZN4absl7debian211string_view13remove_prefixEm(ptr noundef nonnull align 8 dereferenceable(16) %this, i64 noundef %n) #1 comdat align 2 {
entry:
  %this.addr = alloca ptr, align 8
  %n.addr = alloca i64, align 8
  %ref.tmp = alloca %class.anon.29, align 1
  store ptr %this, ptr %this.addr, align 8
  store i64 %n, ptr %n.addr, align 8
  %this1 = load ptr, ptr %this.addr, align 8
  %0 = load i64, ptr %n.addr, align 8
  %length_ = getelementptr inbounds %"class.absl::debian2::string_view", ptr %this1, i32 0, i32 1
  %1 = load i64, ptr %length_, align 8
  %cmp = icmp ule i64 %0, %1
  br i1 %cmp, label %cond.true, label %cond.false

cond.true:                                        ; preds = %entry
  br label %cond.end

cond.false:                                       ; preds = %entry
  call void @_ZZN4absl7debian211string_view13remove_prefixEmENKUlvE_clEv(ptr noundef nonnull align 1 dereferenceable(1) %ref.tmp)
  br label %cond.end

cond.end:                                         ; preds = %cond.false, %cond.true
  %2 = load i64, ptr %n.addr, align 8
  %ptr_ = getelementptr inbounds %"class.absl::debian2::string_view", ptr %this1, i32 0, i32 0
  %3 = load ptr, ptr %ptr_, align 8
  %add.ptr = getelementptr inbounds i8, ptr %3, i64 %2
  store ptr %add.ptr, ptr %ptr_, align 8
  %4 = load i64, ptr %n.addr, align 8
  %length_2 = getelementptr inbounds %"class.absl::debian2::string_view", ptr %this1, i32 0, i32 1
  %5 = load i64, ptr %length_2, align 8
  %sub = sub i64 %5, %4
  store i64 %sub, ptr %length_2, align 8
  ret void
}

; Function Attrs: mustprogress nounwind uwtable
define linkonce_odr noundef nonnull align 8 dereferenceable(8) ptr @_ZSt3minImERKT_S2_S2_(ptr noundef nonnull align 8 dereferenceable(8) %__a, ptr noundef nonnull align 8 dereferenceable(8) %__b) #0 comdat {
entry:
  %retval = alloca ptr, align 8
  %__a.addr = alloca ptr, align 8
  %__b.addr = alloca ptr, align 8
  store ptr %__a, ptr %__a.addr, align 8
  store ptr %__b, ptr %__b.addr, align 8
  %0 = load ptr, ptr %__b.addr, align 8
  %1 = load i64, ptr %0, align 8
  %2 = load ptr, ptr %__a.addr, align 8
  %3 = load i64, ptr %2, align 8
  %cmp = icmp ult i64 %1, %3
  br i1 %cmp, label %if.then, label %if.end

if.then:                                          ; preds = %entry
  %4 = load ptr, ptr %__b.addr, align 8
  store ptr %4, ptr %retval, align 8
  br label %return

if.end:                                           ; preds = %entry
  %5 = load ptr, ptr %__a.addr, align 8
  store ptr %5, ptr %retval, align 8
  br label %return

return:                                           ; preds = %if.end, %if.then
  %6 = load ptr, ptr %retval, align 8
  ret ptr %6
}

; Function Attrs: mustprogress nounwind uwtable
define linkonce_odr noundef i64 @_ZNK4absl7debian211string_view4sizeEv(ptr noundef nonnull align 8 dereferenceable(16) %this) #0 comdat align 2 {
entry:
  %this.addr = alloca ptr, align 8
  store ptr %this, ptr %this.addr, align 8
  %this1 = load ptr, ptr %this.addr, align 8
  %length_ = getelementptr inbounds %"class.absl::debian2::string_view", ptr %this1, i32 0, i32 1
  %0 = load i64, ptr %length_, align 8
  ret i64 %0
}

; Function Attrs: mustprogress nounwind uwtable
define linkonce_odr noundef ptr @_ZNK4absl7debian211string_view4dataEv(ptr noundef nonnull align 8 dereferenceable(16) %this) #0 comdat align 2 {
entry:
  %this.addr = alloca ptr, align 8
  store ptr %this, ptr %this.addr, align 8
  %this1 = load ptr, ptr %this.addr, align 8
  %ptr_ = getelementptr inbounds %"class.absl::debian2::string_view", ptr %this1, i32 0, i32 0
  %0 = load ptr, ptr %ptr_, align 8
  ret ptr %0
}

; Function Attrs: mustprogress uwtable
define internal noundef i32 @_ZN3re2L16StringViewToRuneEPiPN4absl7debian211string_viewEPNS_12RegexpStatusE(ptr noundef %r, ptr noundef %sp, ptr noundef %status) #1 {
entry:
  %retval = alloca i32, align 4
  %r.addr = alloca ptr, align 8
  %sp.addr = alloca ptr, align 8
  %status.addr = alloca ptr, align 8
  %ref.tmp = alloca i64, align 8
  %ref.tmp1 = alloca i64, align 8
  %n = alloca i32, align 4
  %agg.tmp = alloca %"class.absl::debian2::string_view", align 8
  store ptr %r, ptr %r.addr, align 8
  store ptr %sp, ptr %sp.addr, align 8
  store ptr %status, ptr %status.addr, align 8
  %0 = load ptr, ptr %sp.addr, align 8
  %call = call noundef ptr @_ZNK4absl7debian211string_view4dataEv(ptr noundef nonnull align 8 dereferenceable(16) %0) #12
  store i64 4, ptr %ref.tmp, align 8
  %1 = load ptr, ptr %sp.addr, align 8
  %call2 = call noundef i64 @_ZNK4absl7debian211string_view4sizeEv(ptr noundef nonnull align 8 dereferenceable(16) %1) #12
  store i64 %call2, ptr %ref.tmp1, align 8
  %call3 = call noundef nonnull align 8 dereferenceable(8) ptr @_ZSt3minImERKT_S2_S2_(ptr noundef nonnull align 8 dereferenceable(8) %ref.tmp, ptr noundef nonnull align 8 dereferenceable(8) %ref.tmp1)
  %2 = load i64, ptr %call3, align 8
  %conv = trunc i64 %2 to i32
  %call4 = call noundef i32 @_ZN3re28fullruneEPKci(ptr noundef %call, i32 noundef %conv)
  %tobool = icmp ne i32 %call4, 0
  br i1 %tobool, label %if.then, label %if.end13

if.then:                                          ; preds = %entry
  %3 = load ptr, ptr %r.addr, align 8
  %4 = load ptr, ptr %sp.addr, align 8
  %call5 = call noundef ptr @_ZNK4absl7debian211string_view4dataEv(ptr noundef nonnull align 8 dereferenceable(16) %4) #12
  %call6 = call noundef i32 @_ZN3re210chartoruneEPiPKc(ptr noundef %3, ptr noundef %call5)
  store i32 %call6, ptr %n, align 4
  %5 = load ptr, ptr %r.addr, align 8
  %6 = load i32, ptr %5, align 4
  %cmp = icmp sgt i32 %6, 1114111
  br i1 %cmp, label %if.then7, label %if.end

if.then7:                                         ; preds = %if.then
  store i32 1, ptr %n, align 4
  %7 = load ptr, ptr %r.addr, align 8
  store i32 65533, ptr %7, align 4
  br label %if.end

if.end:                                           ; preds = %if.then7, %if.then
  %8 = load i32, ptr %n, align 4
  %cmp8 = icmp eq i32 %8, 1
  br i1 %cmp8, label %land.lhs.true, label %if.then10

land.lhs.true:                                    ; preds = %if.end
  %9 = load ptr, ptr %r.addr, align 8
  %10 = load i32, ptr %9, align 4
  %cmp9 = icmp eq i32 %10, 65533
  br i1 %cmp9, label %if.end12, label %if.then10

if.then10:                                        ; preds = %land.lhs.true, %if.end
  %11 = load ptr, ptr %sp.addr, align 8
  %12 = load i32, ptr %n, align 4
  %conv11 = sext i32 %12 to i64
  call void @_ZN4absl7debian211string_view13remove_prefixEm(ptr noundef nonnull align 8 dereferenceable(16) %11, i64 noundef %conv11)
  %13 = load i32, ptr %n, align 4
  store i32 %13, ptr %retval, align 4
  br label %return

if.end12:                                         ; preds = %land.lhs.true
  br label %if.end13

if.end13:                                         ; preds = %if.end12, %entry
  %14 = load ptr, ptr %status.addr, align 8
  %cmp14 = icmp ne ptr %14, null
  br i1 %cmp14, label %if.then15, label %if.end16

if.then15:                                        ; preds = %if.end13
  %15 = load ptr, ptr %status.addr, align 8
  call void @_ZN3re212RegexpStatus8set_codeENS_16RegexpStatusCodeE(ptr noundef nonnull align 8 dereferenceable(32) %15, i32 noundef 13)
  %16 = load ptr, ptr %status.addr, align 8
  call void @_ZN4absl7debian211string_viewC2Ev(ptr noundef nonnull align 8 dereferenceable(16) %agg.tmp) #12
  %17 = getelementptr inbounds { ptr, i64 }, ptr %agg.tmp, i32 0, i32 0
  %18 = load ptr, ptr %17, align 8
  %19 = getelementptr inbounds { ptr, i64 }, ptr %agg.tmp, i32 0, i32 1
  %20 = load i64, ptr %19, align 8
  call void @_ZN3re212RegexpStatus13set_error_argEN4absl7debian211string_viewE(ptr noundef nonnull align 8 dereferenceable(32) %16, ptr %18, i64 %20)
  br label %if.end16

if.end16:                                         ; preds = %if.then15, %if.end13
  store i32 -1, ptr %retval, align 4
  br label %return

return:                                           ; preds = %if.end16, %if.then10
  %21 = load i32, ptr %retval, align 4
  ret i32 %21
}

; Function Attrs: mustprogress nounwind uwtable
define linkonce_odr noundef zeroext i1 @_ZNK4absl7debian211string_view5emptyEv(ptr noundef nonnull align 8 dereferenceable(16) %this) #0 comdat align 2 {
entry:
  %this.addr = alloca ptr, align 8
  store ptr %this, ptr %this.addr, align 8
  %this1 = load ptr, ptr %this.addr, align 8
  %length_ = getelementptr inbounds %"class.absl::debian2::string_view", ptr %this1, i32 0, i32 1
  %0 = load i64, ptr %length_, align 8
  %cmp = icmp eq i64 %0, 0
  ret i1 %cmp
}

; Function Attrs: mustprogress uwtable
define internal noundef zeroext i1 @_ZN3re2L11IsValidUTF8EN4absl7debian211string_viewEPNS_12RegexpStatusE(ptr %s.coerce0, i64 %s.coerce1, ptr noundef %status) #1 {
entry:
  %retval = alloca i1, align 1
  %s = alloca %"class.absl::debian2::string_view", align 8
  %status.addr = alloca ptr, align 8
  %t = alloca %"class.absl::debian2::string_view", align 8
  %r = alloca i32, align 4
  %0 = getelementptr inbounds { ptr, i64 }, ptr %s, i32 0, i32 0
  store ptr %s.coerce0, ptr %0, align 8
  %1 = getelementptr inbounds { ptr, i64 }, ptr %s, i32 0, i32 1
  store i64 %s.coerce1, ptr %1, align 8
  store ptr %status, ptr %status.addr, align 8
  call void @llvm.memcpy.p0.p0.i64(ptr align 8 %t, ptr align 8 %s, i64 16, i1 false)
  br label %while.cond

while.cond:                                       ; preds = %if.end, %entry
  %call = call noundef zeroext i1 @_ZNK4absl7debian211string_view5emptyEv(ptr noundef nonnull align 8 dereferenceable(16) %t) #12
  %lnot = xor i1 %call, true
  br i1 %lnot, label %while.body, label %while.end

while.body:                                       ; preds = %while.cond
  %2 = load ptr, ptr %status.addr, align 8
  %call1 = call noundef i32 @_ZN3re2L16StringViewToRuneEPiPN4absl7debian211string_viewEPNS_12RegexpStatusE(ptr noundef %r, ptr noundef %t, ptr noundef %2)
  %cmp = icmp slt i32 %call1, 0
  br i1 %cmp, label %if.then, label %if.end

if.then:                                          ; preds = %while.body
  store i1 false, ptr %retval, align 1
  br label %return

if.end:                                           ; preds = %while.body
  br label %while.cond, !llvm.loop !29

while.end:                                        ; preds = %while.cond
  store i1 true, ptr %retval, align 1
  br label %return

return:                                           ; preds = %while.end, %if.then
  %3 = load i1, ptr %retval, align 1
  ret i1 %3
}