; Function Attrs: mustprogress uwtable
define internal fastcc noundef zeroext i1 @_ZN3re2L11IsValidUTF8EN4absl7debian211string_viewEPNS_12RegexpStatusE(ptr %s.coerce0, i64 %s.coerce1, ptr noundef writeonly %status) unnamed_addr #8 {
entry:
  %r = alloca i32, align 4
  br label %while.cond

while.cond:                                       ; preds = %_ZN3re2L16StringViewToRuneEPiPN4absl7debian211string_viewEPNS_12RegexpStatusE.exit, %entry
  %t.sroa.5.0 = phi i64 [ %s.coerce1, %entry ], [ %sub.i.i, %_ZN3re2L16StringViewToRuneEPiPN4absl7debian211string_viewEPNS_12RegexpStatusE.exit ]
  %t.sroa.0.0 = phi ptr [ %s.coerce0, %entry ], [ %add.ptr.i.i, %_ZN3re2L16StringViewToRuneEPiPN4absl7debian211string_viewEPNS_12RegexpStatusE.exit ]
  %cmp.i = icmp eq i64 %t.sroa.5.0, 0
  br i1 %cmp.i, label %return, label %while.body

while.body:                                       ; preds = %while.cond
  %.sroa.speculated.i = call i64 @llvm.umin.i64(i64 %t.sroa.5.0, i64 4)
  %conv.i = trunc i64 %.sroa.speculated.i to i32
  %call4.i = call noundef i32 @_ZN3re28fullruneEPKci(ptr noundef %t.sroa.0.0, i32 noundef %conv.i)
  %tobool.not.i = icmp eq i32 %call4.i, 0
  br i1 %tobool.not.i, label %if.end13.i, label %if.then.i

if.then.i:                                        ; preds = %while.body
  %call6.i = call noundef i32 @_ZN3re210chartoruneEPiPKc(ptr noundef nonnull %r, ptr noundef %t.sroa.0.0)
  %0 = load i32, ptr %r, align 4
  %cmp.i1 = icmp sgt i32 %0, 1114111
  br i1 %cmp.i1, label %if.end13.i, label %if.end.i

if.end.i:                                         ; preds = %if.then.i
  %cmp8.i = icmp eq i32 %call6.i, 1
  %cmp9.i = icmp eq i32 %0, 65533
  %or.cond.i = and i1 %cmp8.i, %cmp9.i
  br i1 %or.cond.i, label %if.end13.i, label %if.then10.i

if.then10.i:                                      ; preds = %if.end.i
  %conv11.i = sext i32 %call6.i to i64
  %cmp.not.i.i = icmp ult i64 %t.sroa.5.0, %conv11.i
  br i1 %cmp.not.i.i, label %cond.false.i.i, label %_ZN3re2L16StringViewToRuneEPiPN4absl7debian211string_viewEPNS_12RegexpStatusE.exit

cond.false.i.i:                                   ; preds = %if.then10.i
  call void @llvm.trap()
  unreachable

if.end13.i:                                       ; preds = %if.end.i, %while.body, %if.then.i
  %cmp14.not.i = icmp eq ptr %status, null
  br i1 %cmp14.not.i, label %return, label %if.then15.i

if.then15.i:                                      ; preds = %if.end13.i
  store i32 13, ptr %status, align 8
  %error_arg_.i.i = getelementptr inbounds i8, ptr %status, i64 8
  call void @llvm.memset.p0.i64(ptr noundef nonnull align 8 dereferenceable(16) %error_arg_.i.i, i8 0, i64 16, i1 false)
  br label %return

_ZN3re2L16StringViewToRuneEPiPN4absl7debian211string_viewEPNS_12RegexpStatusE.exit: ; preds = %if.then10.i
  %add.ptr.i.i = getelementptr inbounds i8, ptr %t.sroa.0.0, i64 %conv11.i
  %sub.i.i = sub i64 %t.sroa.5.0, %conv11.i
  %cmp = icmp slt i32 %call6.i, 0
  br i1 %cmp, label %return, label %while.cond, !llvm.loop !48

return:                                           ; preds = %while.cond, %_ZN3re2L16StringViewToRuneEPiPN4absl7debian211string_viewEPNS_12RegexpStatusE.exit, %if.end13.i, %if.then15.i
  ret i1 %cmp.i
}